target datalayout = "e-m:e-p270:32:32-p271:32:32-p272:64:64-i64:64-i128:128-f80:128-n8:16:32:64-S128"
target triple = "x86_64-pc-linux-gnu"

%"class.std::__cxx11::basic_string" = type { %"struct.std::__cxx11::basic_string<char>::_Alloc_hider", i64, %union.anon }
%"struct.std::__cxx11::basic_string<char>::_Alloc_hider" = type { ptr }
%union.anon = type { i64, [8 x i8] }
%"struct.std::_Vector_base" = type { %"struct.std::_Vector_base<jsonnet::internal::FodderElement, std::allocator<jsonnet::internal::FodderElement>>::_Vector_impl" }
%"struct.std::_Vector_base<jsonnet::internal::FodderElement, std::allocator<jsonnet::internal::FodderElement>>::_Vector_impl" = type { %"struct.std::_Vector_base<jsonnet::internal::FodderElement, std::allocator<jsonnet::internal::FodderElement>>::_Vector_impl_data" }
%"struct.std::_Vector_base<jsonnet::internal::FodderElement, std::allocator<jsonnet::internal::FodderElement>>::_Vector_impl_data" = type { ptr, ptr, ptr }
%"class.std::vector" = type { %"struct.std::_Vector_base" }
%"struct.std::_Vector_base.26" = type { %"struct.std::_Vector_base<jsonnet::internal::ArgParam, std::allocator<jsonnet::internal::ArgParam>>::_Vector_impl" }
%"struct.std::_Vector_base<jsonnet::internal::ArgParam, std::allocator<jsonnet::internal::ArgParam>>::_Vector_impl" = type { %"struct.std::_Vector_base<jsonnet::internal::ArgParam, std::allocator<jsonnet::internal::ArgParam>>::_Vector_impl_data" }
%"struct.std::_Vector_base<jsonnet::internal::ArgParam, std::allocator<jsonnet::internal::ArgParam>>::_Vector_impl_data" = type { ptr, ptr, ptr }
%"struct.jsonnet::internal::LocationRange" = type { %"class.std::__cxx11::basic_string", %"struct.jsonnet::internal::Location", %"struct.jsonnet::internal::Location" }
%"struct.jsonnet::internal::Location" = type { i64, i64 }
%"class.std::vector.25" = type { %"struct.std::_Vector_base.26" }
%"struct.jsonnet::internal::AST" = type { ptr, %"struct.jsonnet::internal::LocationRange", i32, %"class.std::vector", %"class.std::vector.40" }
%"class.std::vector.40" = type { %"struct.std::_Vector_base.41" }
%"struct.std::_Vector_base.41" = type { %"struct.std::_Vector_base<const jsonnet::internal::Identifier *, std::allocator<const jsonnet::internal::Identifier *>>::_Vector_impl" }
%"struct.std::_Vector_base<const jsonnet::internal::Identifier *, std::allocator<const jsonnet::internal::Identifier *>>::_Vector_impl" = type { %"struct.std::_Vector_base<const jsonnet::internal::Identifier *, std::allocator<const jsonnet::internal::Identifier *>>::_Vector_impl_data" }
%"struct.std::_Vector_base<const jsonnet::internal::Identifier *, std::allocator<const jsonnet::internal::Identifier *>>::_Vector_impl_data" = type { ptr, ptr, ptr }
%"struct.jsonnet::internal::Apply" = type <{ %"struct.jsonnet::internal::AST", ptr, %"class.std::vector", %"class.std::vector.25", i8, [7 x i8], %"class.std::vector", %"class.std::vector", i8, [7 x i8] }>

; Function Attrs: mustprogress uwtable
define void @_ZN7jsonnet8internal12CompilerPass5visitEPNS0_5ApplyE(ptr noundef nonnull align 8 dereferenceable(16) %0, ptr noundef %1) unnamed_addr #4 align 2 {
  %3 = alloca ptr, align 8
  %4 = alloca ptr, align 8
  store ptr %0, ptr %3, align 8, !tbaa !21
  store ptr %1, ptr %4, align 8, !tbaa !91
  %5 = load ptr, ptr %3, align 8
  %6 = load ptr, ptr %4, align 8, !tbaa !91
  %7 = getelementptr inbounds nuw %"struct.jsonnet::internal::Apply", ptr %6, i32 0, i32 1
  %8 = load ptr, ptr %5, align 8, !tbaa !27
  %9 = getelementptr inbounds ptr, ptr %8, i64 6
  %10 = load ptr, ptr %9, align 8
  call void %10(ptr noundef nonnull align 8 dereferenceable(16) %5, ptr noundef nonnull align 8 dereferenceable(8) %7)
  %11 = load ptr, ptr %4, align 8, !tbaa !91
  %12 = getelementptr inbounds nuw %"struct.jsonnet::internal::Apply", ptr %11, i32 0, i32 2
  %13 = load ptr, ptr %4, align 8, !tbaa !91
  %14 = getelementptr inbounds nuw %"struct.jsonnet::internal::Apply", ptr %13, i32 0, i32 3
  %15 = load ptr, ptr %4, align 8, !tbaa !91
  %16 = getelementptr inbounds nuw %"struct.jsonnet::internal::Apply", ptr %15, i32 0, i32 6
  %17 = load ptr, ptr %5, align 8, !tbaa !27
  %18 = getelementptr inbounds ptr, ptr %17, i64 3
  %19 = load ptr, ptr %18, align 8
  call void %19(ptr noundef nonnull align 8 dereferenceable(16) %5, ptr noundef nonnull align 8 dereferenceable(24) %12, ptr noundef nonnull align 8 dereferenceable(24) %14, ptr noundef nonnull align 8 dereferenceable(24) %16)
  %20 = load ptr, ptr %4, align 8, !tbaa !91
  %21 = getelementptr inbounds nuw %"struct.jsonnet::internal::Apply", ptr %20, i32 0, i32 8
  %22 = load i8, ptr %21, align 8, !tbaa !93, !range !77, !noundef !78
  %23 = trunc i8 %22 to i1
  br i1 %23, label %24, label %30

24:                                               ; preds = %2
  %25 = load ptr, ptr %4, align 8, !tbaa !91
  %26 = getelementptr inbounds nuw %"struct.jsonnet::internal::Apply", ptr %25, i32 0, i32 7
  %27 = load ptr, ptr %5, align 8, !tbaa !27
  %28 = getelementptr inbounds ptr, ptr %27, i64 1
  %29 = load ptr, ptr %28, align 8
  call void %29(ptr noundef nonnull align 8 dereferenceable(16) %5, ptr noundef nonnull align 8 dereferenceable(24) %26)
  br label %30

30:                                               ; preds = %24, %2
  ret void
}