; Function Attrs: mustprogress uwtable
define void @_ZN7jsonnet8internal12CompilerPass5visitEPNS0_5ApplyE(ptr noundef nonnull align 8 dereferenceable(16) %0, ptr noundef %1) unnamed_addr #4 align 2 {
  %3 = getelementptr inbounds nuw i8, ptr %1, i64 128
  %4 = load ptr, ptr %0, align 8, !tbaa !17
  %5 = getelementptr inbounds nuw i8, ptr %4, i64 48
  %6 = load ptr, ptr %5, align 8
  tail call void %6(ptr noundef nonnull align 8 dereferenceable(16) %0, ptr noundef nonnull align 8 dereferenceable(8) %3)
  %7 = getelementptr inbounds nuw i8, ptr %1, i64 136
  %8 = getelementptr inbounds nuw i8, ptr %1, i64 160
  %9 = getelementptr inbounds nuw i8, ptr %1, i64 192
  %10 = load ptr, ptr %0, align 8, !tbaa !17
  %11 = getelementptr inbounds nuw i8, ptr %10, i64 24
  %12 = load ptr, ptr %11, align 8
  tail call void %12(ptr noundef nonnull align 8 dereferenceable(16) %0, ptr noundef nonnull align 8 dereferenceable(24) %7, ptr noundef nonnull align 8 dereferenceable(24) %8, ptr noundef nonnull align 8 dereferenceable(24) %9)
  %13 = getelementptr inbounds nuw i8, ptr %1, i64 240
  %14 = load i8, ptr %13, align 8, !tbaa !55, !range !48, !noundef !49
  %15 = trunc nuw i8 %14 to i1
  br i1 %15, label %16, label %21

16:                                               ; preds = %2
  %17 = getelementptr inbounds nuw i8, ptr %1, i64 216
  %18 = load ptr, ptr %0, align 8, !tbaa !17
  %19 = getelementptr inbounds nuw i8, ptr %18, i64 8
  %20 = load ptr, ptr %19, align 8
  tail call void %20(ptr noundef nonnull align 8 dereferenceable(16) %0, ptr noundef nonnull align 8 dereferenceable(24) %17)
  br label %21

21:                                               ; preds = %16, %2
  ret void
}